target datalayout = "e-m:e-p270:32:32-p271:32:32-p272:64:64-i64:64-i128:128-f80:128-n8:16:32:64-S128"
target triple = "x86_64-pc-linux-gnu"

%struct.pg_hmac_ctx = type { ptr, i32, i32, ptr, i32, i32, [128 x i8], [128 x i8] }

@.str = private unnamed_addr constant [14 x i8] c"out of memory\00", align 1
@.str.1 = private unnamed_addr constant [8 x i8] c"success\00", align 1
@.str.2 = private unnamed_addr constant [15 x i8] c"internal error\00", align 1

; Function Attrs: nounwind uwtable
define dso_local ptr @pg_hmac_error(ptr noundef %0) #0 {
  %2 = alloca ptr, align 8
  %3 = alloca ptr, align 8
  store ptr %0, ptr %3, align 8
  %4 = load ptr, ptr %3, align 8
  %5 = icmp eq ptr %4, null
  br i1 %5, label %6, label %7

6:                                                ; preds = %1
  store ptr @.str, ptr %2, align 8
  br label %24

7:                                                ; preds = %1
  %8 = load ptr, ptr %3, align 8
  %9 = getelementptr inbounds nuw %struct.pg_hmac_ctx, ptr %8, i32 0, i32 3
  %10 = load ptr, ptr %9, align 8
  %11 = icmp ne ptr %10, null
  br i1 %11, label %12, label %16

12:                                               ; preds = %7
  %13 = load ptr, ptr %3, align 8
  %14 = getelementptr inbounds nuw %struct.pg_hmac_ctx, ptr %13, i32 0, i32 3
  %15 = load ptr, ptr %14, align 8
  store ptr %15, ptr %2, align 8
  br label %24

16:                                               ; preds = %7
  %17 = load ptr, ptr %3, align 8
  %18 = getelementptr inbounds nuw %struct.pg_hmac_ctx, ptr %17, i32 0, i32 2
  %19 = load i32, ptr %18, align 4
  switch i32 %19, label %23 [
    i32 0, label %20
    i32 2, label %21
    i32 1, label %22
  ]

20:                                               ; preds = %16
  store ptr @.str.1, ptr %2, align 8
  br label %24

21:                                               ; preds = %16
  store ptr @.str.2, ptr %2, align 8
  br label %24

22:                                               ; preds = %16
  store ptr @.str, ptr %2, align 8
  br label %24

23:                                               ; preds = %16
  store ptr @.str.1, ptr %2, align 8
  br label %24

24:                                               ; preds = %23, %22, %21, %20, %12, %6
  %25 = load ptr, ptr %2, align 8
  ret ptr %25
}