; Function Attrs: mustprogress nofree norecurse nosync nounwind willreturn memory(argmem: read) uwtable
define dso_local ptr @pg_hmac_error(ptr noundef readonly captures(address_is_null) %0) local_unnamed_addr #4 {
  %2 = icmp eq ptr %0, null
  br i1 %2, label %9, label %3

3:                                                ; preds = %1
  %4 = getelementptr inbounds nuw i8, ptr %0, i64 16
  %5 = load ptr, ptr %4, align 8
  %.not = icmp eq ptr %5, null
  br i1 %.not, label %6, label %9

6:                                                ; preds = %3
  %7 = getelementptr inbounds nuw i8, ptr %0, i64 12
  %8 = load i32, ptr %7, align 4
  %switch.selectcmp = icmp eq i32 %8, 2
  %switch.select = select i1 %switch.selectcmp, ptr @.str.2, ptr @.str.1
  %switch.selectcmp7 = icmp eq i32 %8, 1
  %switch.select8 = select i1 %switch.selectcmp7, ptr @.str, ptr %switch.select
  br label %9

9:                                                ; preds = %6, %3, %1
  %.0 = phi ptr [ @.str, %1 ], [ %5, %3 ], [ %switch.select8, %6 ]
  ret ptr %.0
}